; Function Attrs: mustprogress uwtable
define noundef zeroext i1 @_ZN7rocksdb16ColumnFamilyData29ReturnThreadLocalSuperVersionEPNS_12SuperVersionE(ptr nocapture noundef nonnull readonly align 8 dereferenceable(2656) %this, ptr noundef %sv) local_unnamed_addr #7 align 2 {
entry:
  %expected = alloca ptr, align 8
  store ptr @_ZN7rocksdb12SuperVersion5dummyE, ptr %expected, align 8
  %local_sv_ = getelementptr inbounds i8, ptr %this, i64 2472
  %0 = load ptr, ptr %local_sv_, align 8
  %call2 = call noundef zeroext i1 @_ZN7rocksdb14ThreadLocalPtr14CompareAndSwapEPvRS1_(ptr noundef nonnull align 4 dereferenceable(4) %0, ptr noundef %sv, ptr noundef nonnull align 8 dereferenceable(8) %expected)
  ret i1 %call2
}